; Function Attrs: nounwind uwtable
define dso_local i32 @match_stat_data_racy(ptr noundef readonly captures(none) %0, ptr noundef %1, ptr noundef %2) local_unnamed_addr #0 {
  %4 = getelementptr i8, ptr %0, i64 48
  %.val = load i32, ptr %4, align 8, !tbaa !49
  %.not.i = icmp eq i32 %.val, 0
  br i1 %.not.i, label %is_racy_stat.exit.thread, label %is_racy_stat.exit

is_racy_stat.exit:                                ; preds = %3
  %5 = getelementptr inbounds nuw i8, ptr %1, i64 8
  %6 = load i32, ptr %5, align 4, !tbaa !50
  %.not5 = icmp ugt i32 %.val, %6
  br i1 %.not5, label %is_racy_stat.exit.thread, label %8

is_racy_stat.exit.thread:                         ; preds = %3, %is_racy_stat.exit
  %7 = tail call i32 @match_stat_data(ptr noundef %1, ptr noundef %2) #30
  br label %8

8:                                                ; preds = %is_racy_stat.exit, %is_racy_stat.exit.thread
  %.0 = phi i32 [ %7, %is_racy_stat.exit.thread ], [ 1, %is_racy_stat.exit ]
  ret i32 %.0
}